#include <math.h>
#include <stdio.h>
#include <stdlib.h>
#include <string.h>


int main()
{
	int k,j=0,y,i,m,d,number[12]={31,28,31,30,31,30,31,31,30,31,30,31};
	scanf("%d %d %d",&y,&m,&d);
	for(i=1;i<m;i++)
	{j+=number[i-1];}
    k=j+d;
    if(y%4==0&&y%100!=0||y%400==0){
		if(m>1)
			printf("%d",k+1);}
	else
		printf("%d",k);
	return 0;
}

